target datalayout = "e-m:e-p270:32:32-p271:32:32-p272:64:64-i64:64-i128:128-f80:128-n8:16:32:64-S128"
target triple = "x86_64-unknown-linux-gnu"

%struct.ReservedRegion = type { %struct.Range, i32 }
%struct.Range = type { i64, i64 }

@.str.9 = private unnamed_addr constant [41 x i8] c"../qemu/hw/core/qdev-properties-system.c\00", align 1
@.str.55 = private unnamed_addr constant [15 x i8] c"0x%lx:0x%lx:%u\00", align 1
@.str.56 = private unnamed_addr constant [20 x i8] c"rc < sizeof(buffer)\00", align 1
@__PRETTY_FUNCTION__.get_reserved_region = private unnamed_addr constant [78 x i8] c"void get_reserved_region(Object *, Visitor *, const char *, void *, Error **)\00", align 1
@.str.57 = private unnamed_addr constant [23 x i8] c"!range_is_empty(range)\00", align 1
@.str.58 = private unnamed_addr constant [99 x i8] c"/home/dtcxzyw/WorkSpace/Projects/compilers/llvm-opt-benchmark/bench/qemu/qemu/include/qemu/range.h\00", align 1
@__PRETTY_FUNCTION__.range_lob = private unnamed_addr constant [28 x i8] c"uint64_t range_lob(Range *)\00", align 1
@.str.59 = private unnamed_addr constant [57 x i8] c"range->lob <= range->upb || range->lob == range->upb + 1\00", align 1
@__PRETTY_FUNCTION__.range_invariant = private unnamed_addr constant [36 x i8] c"void range_invariant(const Range *)\00", align 1
@__PRETTY_FUNCTION__.range_upb = private unnamed_addr constant [28 x i8] c"uint64_t range_upb(Range *)\00", align 1

; Function Attrs: nounwind sspstrong uwtable
define internal void @range_invariant(ptr noundef %range) #0 {
entry:
  %range.addr = alloca ptr, align 8
  store ptr %range, ptr %range.addr, align 8
  %0 = load ptr, ptr %range.addr, align 8
  %lob = getelementptr inbounds %struct.Range, ptr %0, i32 0, i32 0
  %1 = load i64, ptr %lob, align 8
  %2 = load ptr, ptr %range.addr, align 8
  %upb = getelementptr inbounds %struct.Range, ptr %2, i32 0, i32 1
  %3 = load i64, ptr %upb, align 8
  %cmp = icmp ule i64 %1, %3
  br i1 %cmp, label %if.then, label %lor.lhs.false

lor.lhs.false:                                    ; preds = %entry
  %4 = load ptr, ptr %range.addr, align 8
  %lob1 = getelementptr inbounds %struct.Range, ptr %4, i32 0, i32 0
  %5 = load i64, ptr %lob1, align 8
  %6 = load ptr, ptr %range.addr, align 8
  %upb2 = getelementptr inbounds %struct.Range, ptr %6, i32 0, i32 1
  %7 = load i64, ptr %upb2, align 8
  %add = add i64 %7, 1
  %cmp3 = icmp eq i64 %5, %add
  br i1 %cmp3, label %if.then, label %if.else

if.then:                                          ; preds = %lor.lhs.false, %entry
  br label %if.end

if.else:                                          ; preds = %lor.lhs.false
  call void @__assert_fail(ptr noundef @.str.59, ptr noundef @.str.58, i32 noundef 41, ptr noundef @__PRETTY_FUNCTION__.range_invariant) #9
  unreachable

if.end:                                           ; preds = %if.then
  ret void
}

; Function Attrs: nounwind sspstrong uwtable
define internal zeroext i1 @range_is_empty(ptr noundef %range) #0 {
entry:
  %range.addr = alloca ptr, align 8
  store ptr %range, ptr %range.addr, align 8
  %0 = load ptr, ptr %range.addr, align 8
  call void @range_invariant(ptr noundef %0)
  %1 = load ptr, ptr %range.addr, align 8
  %lob = getelementptr inbounds %struct.Range, ptr %1, i32 0, i32 0
  %2 = load i64, ptr %lob, align 8
  %3 = load ptr, ptr %range.addr, align 8
  %upb = getelementptr inbounds %struct.Range, ptr %3, i32 0, i32 1
  %4 = load i64, ptr %upb, align 8
  %cmp = icmp ugt i64 %2, %4
  ret i1 %cmp
}

; Function Attrs: nounwind sspstrong uwtable
define internal i64 @range_upb(ptr noundef %range) #0 {
entry:
  %range.addr = alloca ptr, align 8
  store ptr %range, ptr %range.addr, align 8
  %0 = load ptr, ptr %range.addr, align 8
  %call = call zeroext i1 @range_is_empty(ptr noundef %0)
  br i1 %call, label %if.else, label %if.then

if.then:                                          ; preds = %entry
  br label %if.end

if.else:                                          ; preds = %entry
  call void @__assert_fail(ptr noundef @.str.57, ptr noundef @.str.58, i32 noundef 108, ptr noundef @__PRETTY_FUNCTION__.range_upb) #9
  unreachable

if.end:                                           ; preds = %if.then
  %1 = load ptr, ptr %range.addr, align 8
  %upb = getelementptr inbounds %struct.Range, ptr %1, i32 0, i32 1
  %2 = load i64, ptr %upb, align 8
  ret i64 %2
}

; Function Attrs: nounwind sspstrong uwtable
define internal i64 @range_lob(ptr noundef %range) #0 {
entry:
  %range.addr = alloca ptr, align 8
  store ptr %range, ptr %range.addr, align 8
  %0 = load ptr, ptr %range.addr, align 8
  %call = call zeroext i1 @range_is_empty(ptr noundef %0)
  br i1 %call, label %if.else, label %if.then

if.then:                                          ; preds = %entry
  br label %if.end

if.else:                                          ; preds = %entry
  call void @__assert_fail(ptr noundef @.str.57, ptr noundef @.str.58, i32 noundef 101, ptr noundef @__PRETTY_FUNCTION__.range_lob) #9
  unreachable

if.end:                                           ; preds = %if.then
  %1 = load ptr, ptr %range.addr, align 8
  %lob = getelementptr inbounds %struct.Range, ptr %1, i32 0, i32 0
  %2 = load i64, ptr %lob, align 8
  ret i64 %2
}

; Function Attrs: nounwind sspstrong uwtable
define internal void @get_reserved_region(ptr noundef %obj, ptr noundef %v, ptr noundef %name, ptr noundef %opaque, ptr noundef %errp) #0 {
entry:
  %obj.addr = alloca ptr, align 8
  %v.addr = alloca ptr, align 8
  %name.addr = alloca ptr, align 8
  %opaque.addr = alloca ptr, align 8
  %errp.addr = alloca ptr, align 8
  %prop = alloca ptr, align 8
  %rr = alloca ptr, align 8
  %buffer = alloca [64 x i8], align 16
  %p = alloca ptr, align 8
  %rc = alloca i32, align 4
  store ptr %obj, ptr %obj.addr, align 8
  store ptr %v, ptr %v.addr, align 8
  store ptr %name, ptr %name.addr, align 8
  store ptr %opaque, ptr %opaque.addr, align 8
  store ptr %errp, ptr %errp.addr, align 8
  %0 = load ptr, ptr %opaque.addr, align 8
  store ptr %0, ptr %prop, align 8
  %1 = load ptr, ptr %obj.addr, align 8
  %2 = load ptr, ptr %prop, align 8
  %call = call ptr @object_field_prop_ptr(ptr noundef %1, ptr noundef %2)
  store ptr %call, ptr %rr, align 8
  %arraydecay = getelementptr inbounds [64 x i8], ptr %buffer, i64 0, i64 0
  store ptr %arraydecay, ptr %p, align 8
  %arraydecay1 = getelementptr inbounds [64 x i8], ptr %buffer, i64 0, i64 0
  %3 = load ptr, ptr %rr, align 8
  %range = getelementptr inbounds %struct.ReservedRegion, ptr %3, i32 0, i32 0
  %call2 = call i64 @range_lob(ptr noundef %range)
  %4 = load ptr, ptr %rr, align 8
  %range3 = getelementptr inbounds %struct.ReservedRegion, ptr %4, i32 0, i32 0
  %call4 = call i64 @range_upb(ptr noundef %range3)
  %5 = load ptr, ptr %rr, align 8
  %type = getelementptr inbounds %struct.ReservedRegion, ptr %5, i32 0, i32 1
  %6 = load i32, ptr %type, align 8
  %call5 = call i32 (ptr, i64, ptr, ...) @snprintf(ptr noundef %arraydecay1, i64 noundef 64, ptr noundef @.str.55, i64 noundef %call2, i64 noundef %call4, i32 noundef %6) #7
  store i32 %call5, ptr %rc, align 4
  %7 = load i32, ptr %rc, align 4
  %conv = sext i32 %7 to i64
  %cmp = icmp ult i64 %conv, 64
  br i1 %cmp, label %if.then, label %if.else

if.then:                                          ; preds = %entry
  br label %if.end

if.else:                                          ; preds = %entry
  call void @__assert_fail(ptr noundef @.str.56, ptr noundef @.str.9, i32 noundef 709, ptr noundef @__PRETTY_FUNCTION__.get_reserved_region) #9
  unreachable

if.end:                                           ; preds = %if.then
  %8 = load ptr, ptr %v.addr, align 8
  %9 = load ptr, ptr %name.addr, align 8
  %10 = load ptr, ptr %errp.addr, align 8
  %call7 = call zeroext i1 @visit_type_str(ptr noundef %8, ptr noundef %9, ptr noundef %p, ptr noundef %10)
  ret void
}