; Function Attrs: nounwind sspstrong uwtable
define internal void @get_reserved_region(ptr noundef %obj, ptr noundef %v, ptr noundef %name, ptr noundef %opaque, ptr noundef %errp) #0 {
entry:
  %buffer = alloca [64 x i8], align 16
  %p = alloca ptr, align 8
  %call = tail call ptr @object_field_prop_ptr(ptr noundef %obj, ptr noundef %opaque) #10
  store ptr %buffer, ptr %p, align 8
  %call.val = load i64, ptr %call, align 8
  %0 = getelementptr i8, ptr %call, i64 8
  %call.val3 = load i64, ptr %0, align 8
  %cmp.not.i.i.i = icmp ule i64 %call.val, %call.val3
  %add.i.i.i = add i64 %call.val3, 1
  %cmp3.i.i.i = icmp eq i64 %call.val, %add.i.i.i
  %or.cond.i.i.i = or i1 %cmp.not.i.i.i, %cmp3.i.i.i
  br i1 %or.cond.i.i.i, label %range_is_empty.exit.i, label %if.else.i.i.i

if.else.i.i.i:                                    ; preds = %entry
  call void @__assert_fail(ptr noundef nonnull @.str.59, ptr noundef nonnull @.str.58, i32 noundef 41, ptr noundef nonnull @__PRETTY_FUNCTION__.range_invariant) #12
  unreachable

range_is_empty.exit.i:                            ; preds = %entry
  %cmp.i.i = icmp ugt i64 %call.val, %call.val3
  br i1 %cmp.i.i, label %if.else.i, label %range_upb.exit

if.else.i:                                        ; preds = %range_is_empty.exit.i
  call void @__assert_fail(ptr noundef nonnull @.str.57, ptr noundef nonnull @.str.58, i32 noundef 101, ptr noundef nonnull @__PRETTY_FUNCTION__.range_lob) #12
  unreachable

range_upb.exit:                                   ; preds = %range_is_empty.exit.i
  %type = getelementptr inbounds nuw i8, ptr %call, i64 16
  %1 = load i32, ptr %type, align 8
  %call5 = call i32 (ptr, i64, ptr, ...) @snprintf(ptr noundef nonnull dereferenceable(1) %buffer, i64 noundef 64, ptr noundef nonnull @.str.55, i64 noundef %call.val, i64 noundef %call.val3, i32 noundef %1) #10
  %cmp = icmp ult i32 %call5, 64
  br i1 %cmp, label %if.end, label %if.else

if.else:                                          ; preds = %range_upb.exit
  call void @__assert_fail(ptr noundef nonnull @.str.56, ptr noundef nonnull @.str.9, i32 noundef 709, ptr noundef nonnull @__PRETTY_FUNCTION__.get_reserved_region) #12
  unreachable

if.end:                                           ; preds = %range_upb.exit
  %call7 = call zeroext i1 @visit_type_str(ptr noundef %v, ptr noundef %name, ptr noundef nonnull %p, ptr noundef %errp) #10
  ret void
}